; ModuleID = 'probe6.2f02fb0d-cgu.0'
source_filename = "probe6.2f02fb0d-cgu.0"
target datalayout = "e-m:w-p270:32:32-p271:32:32-p272:64:64-i64:64-f80:128-n8:16:32:64-S128"
target triple = "x86_64-pc-windows-msvc"

%"core::panic::location::Location" = type { { [0 x i8]*, i64 }, i32, i32 }

@alloc1 = private unnamed_addr constant <{ [75 x i8] }> <{ [75 x i8] c"/rustc/fe5b13d681f25ee6474be29d748c65adcd91f69e\\library\\core\\src\\num\\mod.rs" }>, align 1
@alloc2 = private unnamed_addr constant <{ i8*, [16 x i8] }> <{ i8* getelementptr inbounds (<{ [75 x i8] }>, <{ [75 x i8] }>* @alloc1, i32 0, i32 0, i32 0), [16 x i8] c"K\00\00\00\00\00\00\00U\03\00\00\05\00\00\00" }>, align 8
@str.0 = internal constant [25 x i8] c"attempt to divide by zero"

; probe6::probe
; Function Attrs: uwtable
define void @_ZN6probe65probe17h7a903ef83fdb3ae8E() unnamed_addr #0 {
start:
  %0 = call i1 @llvm.expect.i1(i1 false, i1 false)
  br i1 %0, label %panic.i, label %"_ZN4core3num21_$LT$impl$u20$u32$GT$10div_euclid17h431e6557e47805d1E.exit"

panic.i:                                          ; preds = %start
; call core::panicking::panic
  call void @_ZN4core9panicking5panic17hec2b05800ae70116E([0 x i8]* align 1 bitcast ([25 x i8]* @str.0 to [0 x i8]*), i64 25, %"core::panic::location::Location"* align 8 bitcast (<{ i8*, [16 x i8] }>* @alloc2 to %"core::panic::location::Location"*)) #3
  unreachable

"_ZN4core3num21_$LT$impl$u20$u32$GT$10div_euclid17h431e6557e47805d1E.exit": ; preds = %start
  br label %bb1

bb1:                                              ; preds = %"_ZN4core3num21_$LT$impl$u20$u32$GT$10div_euclid17h431e6557e47805d1E.exit"
  ret void
}

; Function Attrs: nofree nosync nounwind readnone willreturn
declare i1 @llvm.expect.i1(i1, i1) #1

; core::panicking::panic
; Function Attrs: cold noinline noreturn uwtable
declare void @_ZN4core9panicking5panic17hec2b05800ae70116E([0 x i8]* align 1, i64, %"core::panic::location::Location"* align 8) unnamed_addr #2

attributes #0 = { uwtable "target-cpu"="x86-64" }
attributes #1 = { nofree nosync nounwind readnone willreturn }
attributes #2 = { cold noinline noreturn uwtable "target-cpu"="x86-64" }
attributes #3 = { noreturn }

!llvm.module.flags = !{!0}

!0 = !{i32 7, !"PIC Level", i32 2}
